; Function Attrs: mustprogress nounwind uwtable
define internal fastcc void @_ZL11log_regionsPKcmmmPjS1_(ptr noundef %0, i64 noundef %1, i64 noundef %2, i64 noundef %3, ptr noundef readonly %4, ptr noundef readonly %5) unnamed_addr #0 {
  %7 = alloca %class.LogStream, align 8
  %8 = load volatile ptr, ptr getelementptr inbounds (i8, ptr @_ZN16LogTagSetMappingILN6LogTag4typeE49ELS1_52ELS1_0ELS1_0ELS1_0ELS1_0EE7_tagsetE, i64 64), align 8
  %.not22 = icmp eq ptr %8, null
  br i1 %.not22, label %30, label %9

9:                                                ; preds = %6
  call void @_ZN12outputStreamC2Eb(ptr noundef nonnull align 8 dereferenceable(56) %7, i1 noundef zeroext false) #7
  store ptr getelementptr inbounds inrange(-16, 40) (i8, ptr @_ZTV17LogStreamImplBase, i64 16), ptr %7, align 8
  %10 = getelementptr inbounds i8, ptr %7, i64 56
  call void @_ZN17LogStreamImplBase10LineBufferC1Ev(ptr noundef nonnull align 8 dereferenceable(88) %10) #7
  %11 = getelementptr inbounds i8, ptr %7, i64 144
  store i32 3, ptr %11, align 8
  %.sroa.21.0..sroa_idx.i.i = getelementptr inbounds i8, ptr %7, i64 152
  store ptr @_ZN16LogTagSetMappingILN6LogTag4typeE49ELS1_52ELS1_0ELS1_0ELS1_0ELS1_0EE7_tagsetE, ptr %.sroa.21.0..sroa_idx.i.i, align 8
  store ptr getelementptr inbounds inrange(-16, 40) (i8, ptr @_ZTV9LogStream, i64 16), ptr %7, align 8
  call void (ptr, ptr, ...) @_ZN12outputStream5printEPKcz(ptr noundef nonnull align 8 dereferenceable(56) %7, ptr noundef nonnull @.str.12, ptr noundef %0, i64 noundef %1, i64 noundef %2, i64 noundef %3) #7
  %12 = icmp ne ptr %4, null
  %13 = icmp ne ptr %5, null
  %or.cond = and i1 %12, %13
  br i1 %or.cond, label %14, label %29

14:                                               ; preds = %9
  %15 = load ptr, ptr @_ZN6G1NUMA5_instE, align 8
  %16 = call noundef i32 @_ZNK6G1NUMA16num_active_nodesEv(ptr noundef nonnull align 8 dereferenceable(56) %15) #7
  %17 = call noundef ptr @_ZNK6G1NUMA8node_idsEv(ptr noundef nonnull align 8 dereferenceable(56) %15) #7
  call void (ptr, ptr, ...) @_ZN12outputStream5printEPKcz(ptr noundef nonnull align 8 dereferenceable(56) %7, ptr noundef nonnull @.str.13) #7
  %.not24 = icmp eq i32 %16, 0
  br i1 %.not24, label %._crit_edge, label %.lr.ph

.lr.ph:                                           ; preds = %14
  %18 = add i32 %16, -1
  %19 = zext i32 %18 to i64
  %wide.trip.count = zext i32 %16 to i64
  br label %20

20:                                               ; preds = %.lr.ph, %28
  %indvars.iv = phi i64 [ 0, %.lr.ph ], [ %indvars.iv.next, %28 ]
  %21 = getelementptr inbounds i32, ptr %17, i64 %indvars.iv
  %22 = load i32, ptr %21, align 4
  %23 = getelementptr inbounds i32, ptr %4, i64 %indvars.iv
  %24 = load i32, ptr %23, align 4
  %25 = getelementptr inbounds i32, ptr %5, i64 %indvars.iv
  %26 = load i32, ptr %25, align 4
  call void (ptr, ptr, ...) @_ZN12outputStream5printEPKcz(ptr noundef nonnull align 8 dereferenceable(56) %7, ptr noundef nonnull @.str.14, i32 noundef %22, i32 noundef %24, i32 noundef %26) #7
  %.not = icmp eq i64 %indvars.iv, %19
  br i1 %.not, label %28, label %27

27:                                               ; preds = %20
  call void (ptr, ptr, ...) @_ZN12outputStream5printEPKcz(ptr noundef nonnull align 8 dereferenceable(56) %7, ptr noundef nonnull @.str.15) #7
  br label %28

28:                                               ; preds = %20, %27
  %indvars.iv.next = add nuw nsw i64 %indvars.iv, 1
  %exitcond.not = icmp eq i64 %indvars.iv.next, %wide.trip.count
  br i1 %exitcond.not, label %._crit_edge, label %20, !llvm.loop !8

._crit_edge:                                      ; preds = %28, %14
  call void (ptr, ptr, ...) @_ZN12outputStream5printEPKcz(ptr noundef nonnull align 8 dereferenceable(56) %7, ptr noundef nonnull @.str.16) #7
  br label %29

29:                                               ; preds = %._crit_edge, %9
  call void (ptr, ptr, ...) @_ZN12outputStream8print_crEPKcz(ptr noundef nonnull align 8 dereferenceable(56) %7, ptr noundef nonnull @.str.17) #7
  call void @_ZN13LogStreamImplI15LogTargetHandleED2Ev(ptr noundef nonnull align 8 dereferenceable(160) %7) #7
  br label %30

30:                                               ; preds = %29, %6
  ret void
}